target datalayout = "e-m:e-p270:32:32-p271:32:32-p272:64:64-i64:64-i128:128-f80:128-n8:16:32:64-S128"
target triple = "x86_64-pc-linux-gnu"

@xmlFree = external global ptr, align 8
@.str.58 = private unnamed_addr constant [6 x i8] c"style\00", align 1
@.str.80 = private unnamed_addr constant [79 x i8] c"cli_scaxar: xmlTextReaderGetAttribute no style attribute for checksum element\0A\00", align 1
@.str.81 = private unnamed_addr constant [40 x i8] c"cli_scanxar: checksum algorithm is %s.\0A\00", align 1
@.str.82 = private unnamed_addr constant [5 x i8] c"sha1\00", align 1
@.str.83 = private unnamed_addr constant [4 x i8] c"md5\00", align 1
@.str.84 = private unnamed_addr constant [52 x i8] c"cli_scanxar: checksum algorithm %s is unsupported.\0A\00", align 1
@.str.85 = private unnamed_addr constant [36 x i8] c"cli_scanxar: checksum value is %s.\0A\00", align 1
@.str.86 = private unnamed_addr constant [61 x i8] c"cli_scanxar: checksum type is unknown or length is invalid.\0A\00", align 1
@.str.87 = private unnamed_addr constant [73 x i8] c"cli_scanxar: xmlTextReaderConstValue() returns NULL for checksum value.\0A\00", align 1
@.str.88 = private unnamed_addr constant [48 x i8] c"cli_scanxar: No text for XML checksum element.\0A\00", align 1

; Function Attrs: nounwind uwtable
define internal void @xar_get_checksum_values(ptr noundef %0, ptr noundef %1, ptr noundef %2) #0 {
  %4 = alloca ptr, align 8
  %5 = alloca ptr, align 8
  %6 = alloca ptr, align 8
  %7 = alloca ptr, align 8
  %8 = alloca ptr, align 8
  store ptr %0, ptr %4, align 8, !tbaa !28
  store ptr %1, ptr %5, align 8, !tbaa !86
  store ptr %2, ptr %6, align 8, !tbaa !84
  call void @llvm.lifetime.start.p0(i64 8, ptr %7) #9
  %9 = load ptr, ptr %4, align 8, !tbaa !28
  %10 = call ptr @xmlTextReaderGetAttribute(ptr noundef %9, ptr noundef @.str.58)
  store ptr %10, ptr %7, align 8, !tbaa !27
  call void @llvm.lifetime.start.p0(i64 8, ptr %8) #9
  %11 = load ptr, ptr %6, align 8, !tbaa !84
  store i32 0, ptr %11, align 4, !tbaa !8
  %12 = load ptr, ptr %7, align 8, !tbaa !27
  %13 = icmp eq ptr %12, null
  br i1 %13, label %14, label %15

14:                                               ; preds = %3
  call void (ptr, ...) @cli_dbgmsg(ptr noundef @.str.80)
  br label %33

15:                                               ; preds = %3
  %16 = load ptr, ptr %7, align 8, !tbaa !27
  call void (ptr, ...) @cli_dbgmsg(ptr noundef @.str.81, ptr noundef %16)
  %17 = load ptr, ptr %7, align 8, !tbaa !27
  %18 = call i32 @xmlStrcasecmp(ptr noundef %17, ptr noundef @.str.82)
  %19 = icmp eq i32 0, %18
  br i1 %19, label %20, label %22

20:                                               ; preds = %15
  %21 = load ptr, ptr %6, align 8, !tbaa !84
  store i32 1, ptr %21, align 4, !tbaa !8
  br label %32

22:                                               ; preds = %15
  %23 = load ptr, ptr %7, align 8, !tbaa !27
  %24 = call i32 @xmlStrcasecmp(ptr noundef %23, ptr noundef @.str.83)
  %25 = icmp eq i32 0, %24
  br i1 %25, label %26, label %28

26:                                               ; preds = %22
  %27 = load ptr, ptr %6, align 8, !tbaa !84
  store i32 2, ptr %27, align 4, !tbaa !8
  br label %31

28:                                               ; preds = %22
  %29 = load ptr, ptr %7, align 8, !tbaa !27
  call void (ptr, ...) @cli_dbgmsg(ptr noundef @.str.84, ptr noundef %29)
  %30 = load ptr, ptr %6, align 8, !tbaa !84
  store i32 3, ptr %30, align 4, !tbaa !8
  br label %31

31:                                               ; preds = %28, %26
  br label %32

32:                                               ; preds = %31, %20
  br label %33

33:                                               ; preds = %32, %14
  %34 = load ptr, ptr %7, align 8, !tbaa !27
  %35 = icmp ne ptr %34, null
  br i1 %35, label %36, label %39

36:                                               ; preds = %33
  %37 = load ptr, ptr @xmlFree, align 8, !tbaa !30
  %38 = load ptr, ptr %7, align 8, !tbaa !27
  call void %37(ptr noundef %38)
  br label %39

39:                                               ; preds = %36, %33
  %40 = load ptr, ptr %4, align 8, !tbaa !28
  %41 = call i32 @xmlTextReaderRead(ptr noundef %40)
  %42 = icmp eq i32 %41, 1
  br i1 %42, label %43, label %80

43:                                               ; preds = %39
  %44 = load ptr, ptr %4, align 8, !tbaa !28
  %45 = call i32 @xmlTextReaderNodeType(ptr noundef %44)
  %46 = icmp eq i32 %45, 3
  br i1 %46, label %47, label %80

47:                                               ; preds = %43
  %48 = load ptr, ptr %4, align 8, !tbaa !28
  %49 = call ptr @xmlTextReaderConstValue(ptr noundef %48)
  store ptr %49, ptr %8, align 8, !tbaa !27
  %50 = load ptr, ptr %8, align 8, !tbaa !27
  %51 = icmp ne ptr %50, null
  br i1 %51, label %52, label %77

52:                                               ; preds = %47
  %53 = load ptr, ptr %8, align 8, !tbaa !27
  call void (ptr, ...) @cli_dbgmsg(ptr noundef @.str.85, ptr noundef %53)
  %54 = load ptr, ptr %6, align 8, !tbaa !84
  %55 = load i32, ptr %54, align 4, !tbaa !8
  %56 = icmp eq i32 %55, 1
  br i1 %56, label %57, label %61

57:                                               ; preds = %52
  %58 = load ptr, ptr %8, align 8, !tbaa !27
  %59 = call i32 @xmlStrlen(ptr noundef %58)
  %60 = icmp eq i32 %59, 40
  br i1 %60, label %69, label %61

61:                                               ; preds = %57, %52
  %62 = load ptr, ptr %6, align 8, !tbaa !84
  %63 = load i32, ptr %62, align 4, !tbaa !8
  %64 = icmp eq i32 %63, 2
  br i1 %64, label %65, label %73

65:                                               ; preds = %61
  %66 = load ptr, ptr %8, align 8, !tbaa !27
  %67 = call i32 @xmlStrlen(ptr noundef %66)
  %68 = icmp eq i32 %67, 32
  br i1 %68, label %69, label %73

69:                                               ; preds = %65, %57
  %70 = load ptr, ptr %8, align 8, !tbaa !27
  %71 = call ptr @xmlStrdup(ptr noundef %70)
  %72 = load ptr, ptr %5, align 8, !tbaa !86
  store ptr %71, ptr %72, align 8, !tbaa !27
  br label %76

73:                                               ; preds = %65, %61
  call void (ptr, ...) @cli_dbgmsg(ptr noundef @.str.86)
  %74 = load ptr, ptr %6, align 8, !tbaa !84
  store i32 3, ptr %74, align 4, !tbaa !8
  %75 = load ptr, ptr %5, align 8, !tbaa !86
  store ptr null, ptr %75, align 8, !tbaa !27
  br label %76

76:                                               ; preds = %73, %69
  br label %79

77:                                               ; preds = %47
  %78 = load ptr, ptr %5, align 8, !tbaa !86
  store ptr null, ptr %78, align 8, !tbaa !27
  call void (ptr, ...) @cli_dbgmsg(ptr noundef @.str.87)
  br label %79

79:                                               ; preds = %77, %76
  br label %81

80:                                               ; preds = %43, %39
  call void (ptr, ...) @cli_dbgmsg(ptr noundef @.str.88)
  br label %81

81:                                               ; preds = %80, %79
  call void @llvm.lifetime.end.p0(i64 8, ptr %8) #9
  call void @llvm.lifetime.end.p0(i64 8, ptr %7) #9
  ret void
}