; Function Attrs: nounwind uwtable
define internal fastcc void @xar_get_checksum_values(ptr noundef nonnull %0, ptr noundef nonnull writeonly captures(none) %1, ptr noundef nonnull captures(none) initializes((0, 4)) %2) unnamed_addr #0 {
  %4 = tail call ptr @xmlTextReaderGetAttribute(ptr noundef nonnull %0, ptr noundef nonnull @.str.58) #10
  store i32 0, ptr %2, align 4, !tbaa !3
  %5 = icmp eq ptr %4, null
  br i1 %5, label %13, label %6

6:                                                ; preds = %3
  tail call void (ptr, ...) @cli_dbgmsg(ptr noundef nonnull @.str.81, ptr noundef nonnull %4) #10
  %7 = tail call i32 @xmlStrcasecmp(ptr noundef nonnull %4, ptr noundef nonnull @.str.82) #10
  %8 = icmp eq i32 %7, 0
  br i1 %8, label %14, label %9

9:                                                ; preds = %6
  %10 = tail call i32 @xmlStrcasecmp(ptr noundef nonnull %4, ptr noundef nonnull @.str.83) #10
  %11 = icmp eq i32 %10, 0
  br i1 %11, label %14, label %12

12:                                               ; preds = %9
  tail call void (ptr, ...) @cli_dbgmsg(ptr noundef nonnull @.str.84, ptr noundef nonnull %4) #10
  br label %14

13:                                               ; preds = %3
  tail call void (ptr, ...) @cli_dbgmsg(ptr noundef nonnull @.str.80) #10
  br label %16

14:                                               ; preds = %9, %6, %12
  %.sink = phi i32 [ 3, %12 ], [ 1, %6 ], [ 2, %9 ]
  store i32 %.sink, ptr %2, align 4, !tbaa !3
  %15 = load ptr, ptr @xmlFree, align 8, !tbaa !66
  tail call void %15(ptr noundef nonnull %4) #10
  br label %16

16:                                               ; preds = %13, %14
  %17 = tail call i32 @xmlTextReaderRead(ptr noundef nonnull %0) #10
  %18 = icmp eq i32 %17, 1
  br i1 %18, label %19, label %40

19:                                               ; preds = %16
  %20 = tail call i32 @xmlTextReaderNodeType(ptr noundef nonnull %0) #10
  %21 = icmp eq i32 %20, 3
  br i1 %21, label %22, label %40

22:                                               ; preds = %19
  %23 = tail call ptr @xmlTextReaderConstValue(ptr noundef nonnull %0) #10
  %.not27 = icmp eq ptr %23, null
  br i1 %.not27, label %39, label %24

24:                                               ; preds = %22
  tail call void (ptr, ...) @cli_dbgmsg(ptr noundef nonnull @.str.85, ptr noundef nonnull %23) #10
  %25 = load i32, ptr %2, align 4, !tbaa !3
  %26 = icmp eq i32 %25, 1
  br i1 %26, label %27, label %30

27:                                               ; preds = %24
  %28 = tail call i32 @xmlStrlen(ptr noundef nonnull %23) #10
  %29 = icmp eq i32 %28, 40
  br i1 %29, label %36, label %thread-pre-split

thread-pre-split:                                 ; preds = %27
  %.pr = load i32, ptr %2, align 4, !tbaa !3
  br label %30

30:                                               ; preds = %thread-pre-split, %24
  %31 = phi i32 [ %.pr, %thread-pre-split ], [ %25, %24 ]
  %32 = icmp eq i32 %31, 2
  br i1 %32, label %33, label %38

33:                                               ; preds = %30
  %34 = tail call i32 @xmlStrlen(ptr noundef nonnull %23) #10
  %35 = icmp eq i32 %34, 32
  br i1 %35, label %36, label %38

36:                                               ; preds = %33, %27
  %37 = tail call ptr @xmlStrdup(ptr noundef nonnull %23) #10
  store ptr %37, ptr %1, align 8, !tbaa !24
  br label %41

38:                                               ; preds = %33, %30
  tail call void (ptr, ...) @cli_dbgmsg(ptr noundef nonnull @.str.86) #10
  store i32 3, ptr %2, align 4, !tbaa !3
  store ptr null, ptr %1, align 8, !tbaa !24
  br label %41

39:                                               ; preds = %22
  store ptr null, ptr %1, align 8, !tbaa !24
  tail call void (ptr, ...) @cli_dbgmsg(ptr noundef nonnull @.str.87) #10
  br label %41

40:                                               ; preds = %19, %16
  tail call void (ptr, ...) @cli_dbgmsg(ptr noundef nonnull @.str.88) #10
  br label %41

41:                                               ; preds = %39, %38, %36, %40
  ret void
}